target datalayout = "e-m:e-p270:32:32-p271:32:32-p272:64:64-i64:64-i128:128-f80:128-n8:16:32:64-S128"
target triple = "x86_64-pc-linux-gnu"

@.str.1 = private unnamed_addr constant [10 x i8] c"ziplist.c\00", align 1
@.str.10 = private unnamed_addr constant [21 x i8] c"zlbytes < UINT32_MAX\00", align 1

; Function Attrs: nounwind uwtable
define dso_local ptr @ziplistMerge(ptr noundef %0, ptr noundef %1) #0 {
  %3 = alloca ptr, align 8
  %4 = alloca ptr, align 8
  %5 = alloca ptr, align 8
  %6 = alloca i64, align 8
  %7 = alloca i64, align 8
  %8 = alloca i64, align 8
  %9 = alloca i64, align 8
  %10 = alloca i32, align 4
  %11 = alloca ptr, align 8
  %12 = alloca ptr, align 8
  %13 = alloca i64, align 8
  %14 = alloca i64, align 8
  %15 = alloca i64, align 8
  %16 = alloca i64, align 8
  %17 = alloca i64, align 8
  %18 = alloca i64, align 8
  store ptr %0, ptr %4, align 8, !tbaa !35
  store ptr %1, ptr %5, align 8, !tbaa !35
  %19 = load ptr, ptr %4, align 8, !tbaa !35
  %20 = icmp eq ptr %19, null
  br i1 %20, label %32, label %21

21:                                               ; preds = %2
  %22 = load ptr, ptr %4, align 8, !tbaa !35
  %23 = load ptr, ptr %22, align 8, !tbaa !5
  %24 = icmp eq ptr %23, null
  br i1 %24, label %32, label %25

25:                                               ; preds = %21
  %26 = load ptr, ptr %5, align 8, !tbaa !35
  %27 = icmp eq ptr %26, null
  br i1 %27, label %32, label %28

28:                                               ; preds = %25
  %29 = load ptr, ptr %5, align 8, !tbaa !35
  %30 = load ptr, ptr %29, align 8, !tbaa !5
  %31 = icmp eq ptr %30, null
  br i1 %31, label %32, label %33

32:                                               ; preds = %28, %25, %21, %2
  store ptr null, ptr %3, align 8
  br label %178

33:                                               ; preds = %28
  %34 = load ptr, ptr %4, align 8, !tbaa !35
  %35 = load ptr, ptr %34, align 8, !tbaa !5
  %36 = load ptr, ptr %5, align 8, !tbaa !35
  %37 = load ptr, ptr %36, align 8, !tbaa !5
  %38 = icmp eq ptr %35, %37
  br i1 %38, label %39, label %40

39:                                               ; preds = %33
  store ptr null, ptr %3, align 8
  br label %178

40:                                               ; preds = %33
  call void @llvm.lifetime.start.p0(i64 8, ptr %6) #11
  %41 = load ptr, ptr %4, align 8, !tbaa !35
  %42 = load ptr, ptr %41, align 8, !tbaa !5
  %43 = load i32, ptr %42, align 4, !tbaa !12
  %44 = zext i32 %43 to i64
  store i64 %44, ptr %6, align 8, !tbaa !10
  call void @llvm.lifetime.start.p0(i64 8, ptr %7) #11
  %45 = load ptr, ptr %4, align 8, !tbaa !35
  %46 = load ptr, ptr %45, align 8, !tbaa !5
  %47 = getelementptr inbounds nuw i8, ptr %46, i64 8
  %48 = load i16, ptr %47, align 2, !tbaa !19
  %49 = zext i16 %48 to i64
  store i64 %49, ptr %7, align 8, !tbaa !10
  call void @llvm.lifetime.start.p0(i64 8, ptr %8) #11
  %50 = load ptr, ptr %5, align 8, !tbaa !35
  %51 = load ptr, ptr %50, align 8, !tbaa !5
  %52 = load i32, ptr %51, align 4, !tbaa !12
  %53 = zext i32 %52 to i64
  store i64 %53, ptr %8, align 8, !tbaa !10
  call void @llvm.lifetime.start.p0(i64 8, ptr %9) #11
  %54 = load ptr, ptr %5, align 8, !tbaa !35
  %55 = load ptr, ptr %54, align 8, !tbaa !5
  %56 = getelementptr inbounds nuw i8, ptr %55, i64 8
  %57 = load i16, ptr %56, align 2, !tbaa !19
  %58 = zext i16 %57 to i64
  store i64 %58, ptr %9, align 8, !tbaa !10
  call void @llvm.lifetime.start.p0(i64 4, ptr %10) #11
  call void @llvm.lifetime.start.p0(i64 8, ptr %11) #11
  call void @llvm.lifetime.start.p0(i64 8, ptr %12) #11
  call void @llvm.lifetime.start.p0(i64 8, ptr %13) #11
  call void @llvm.lifetime.start.p0(i64 8, ptr %14) #11
  %59 = load i64, ptr %7, align 8, !tbaa !10
  %60 = load i64, ptr %9, align 8, !tbaa !10
  %61 = icmp uge i64 %59, %60
  br i1 %61, label %62, label %69

62:                                               ; preds = %40
  %63 = load ptr, ptr %4, align 8, !tbaa !35
  %64 = load ptr, ptr %63, align 8, !tbaa !5
  store ptr %64, ptr %12, align 8, !tbaa !5
  %65 = load i64, ptr %6, align 8, !tbaa !10
  store i64 %65, ptr %13, align 8, !tbaa !10
  %66 = load ptr, ptr %5, align 8, !tbaa !35
  %67 = load ptr, ptr %66, align 8, !tbaa !5
  store ptr %67, ptr %11, align 8, !tbaa !5
  %68 = load i64, ptr %8, align 8, !tbaa !10
  store i64 %68, ptr %14, align 8, !tbaa !10
  store i32 1, ptr %10, align 4, !tbaa !12
  br label %76

69:                                               ; preds = %40
  %70 = load ptr, ptr %5, align 8, !tbaa !35
  %71 = load ptr, ptr %70, align 8, !tbaa !5
  store ptr %71, ptr %12, align 8, !tbaa !5
  %72 = load i64, ptr %8, align 8, !tbaa !10
  store i64 %72, ptr %13, align 8, !tbaa !10
  %73 = load ptr, ptr %4, align 8, !tbaa !35
  %74 = load ptr, ptr %73, align 8, !tbaa !5
  store ptr %74, ptr %11, align 8, !tbaa !5
  %75 = load i64, ptr %6, align 8, !tbaa !10
  store i64 %75, ptr %14, align 8, !tbaa !10
  store i32 0, ptr %10, align 4, !tbaa !12
  br label %76

76:                                               ; preds = %69, %62
  call void @llvm.lifetime.start.p0(i64 8, ptr %15) #11
  %77 = load i64, ptr %6, align 8, !tbaa !10
  %78 = load i64, ptr %8, align 8, !tbaa !10
  %79 = add i64 %77, %78
  %80 = sub i64 %79, 10
  %81 = sub i64 %80, 1
  store i64 %81, ptr %15, align 8, !tbaa !10
  call void @llvm.lifetime.start.p0(i64 8, ptr %16) #11
  %82 = load i64, ptr %7, align 8, !tbaa !10
  %83 = load i64, ptr %9, align 8, !tbaa !10
  %84 = add i64 %82, %83
  store i64 %84, ptr %16, align 8, !tbaa !10
  %85 = load i64, ptr %16, align 8, !tbaa !10
  %86 = icmp ult i64 %85, 65535
  br i1 %86, label %87, label %89

87:                                               ; preds = %76
  %88 = load i64, ptr %16, align 8, !tbaa !10
  br label %90

89:                                               ; preds = %76
  br label %90

90:                                               ; preds = %89, %87
  %91 = phi i64 [ %88, %87 ], [ 65535, %89 ]
  store i64 %91, ptr %16, align 8, !tbaa !10
  %92 = load i64, ptr %15, align 8, !tbaa !10
  %93 = icmp ult i64 %92, 4294967295
  %94 = xor i1 %93, true
  %95 = xor i1 %94, true
  %96 = zext i1 %95 to i32
  %97 = sext i32 %96 to i64
  %98 = call i64 @llvm.expect.i64(i64 %97, i64 1)
  %99 = icmp ne i64 %98, 0
  br i1 %99, label %100, label %101

100:                                              ; preds = %90
  br label %103

101:                                              ; preds = %90
  call void @_serverAssert(ptr noundef @.str.10, ptr noundef @.str.1, i32 noundef 1085)
  call void @abort() #12
  unreachable

102:                                              ; No predecessors!
  br label %103

103:                                              ; preds = %102, %100
  call void @llvm.lifetime.start.p0(i64 8, ptr %17) #11
  %104 = load ptr, ptr %4, align 8, !tbaa !35
  %105 = load ptr, ptr %104, align 8, !tbaa !5
  %106 = getelementptr inbounds nuw i8, ptr %105, i64 4
  %107 = load i32, ptr %106, align 4, !tbaa !12
  %108 = zext i32 %107 to i64
  store i64 %108, ptr %17, align 8, !tbaa !10
  call void @llvm.lifetime.start.p0(i64 8, ptr %18) #11
  %109 = load ptr, ptr %5, align 8, !tbaa !35
  %110 = load ptr, ptr %109, align 8, !tbaa !5
  %111 = getelementptr inbounds nuw i8, ptr %110, i64 4
  %112 = load i32, ptr %111, align 4, !tbaa !12
  %113 = zext i32 %112 to i64
  store i64 %113, ptr %18, align 8, !tbaa !10
  %114 = load ptr, ptr %12, align 8, !tbaa !5
  %115 = load i64, ptr %15, align 8, !tbaa !10
  %116 = call ptr @zrealloc(ptr noundef %114, i64 noundef %115) #14
  store ptr %116, ptr %12, align 8, !tbaa !5
  %117 = load i32, ptr %10, align 4, !tbaa !12
  %118 = icmp ne i32 %117, 0
  br i1 %118, label %119, label %128

119:                                              ; preds = %103
  %120 = load ptr, ptr %12, align 8, !tbaa !5
  %121 = load i64, ptr %13, align 8, !tbaa !10
  %122 = getelementptr inbounds nuw i8, ptr %120, i64 %121
  %123 = getelementptr inbounds i8, ptr %122, i64 -1
  %124 = load ptr, ptr %11, align 8, !tbaa !5
  %125 = getelementptr inbounds nuw i8, ptr %124, i64 10
  %126 = load i64, ptr %14, align 8, !tbaa !10
  %127 = sub i64 %126, 10
  call void @llvm.memcpy.p0.p0.i64(ptr align 1 %123, ptr align 1 %125, i64 %127, i1 false)
  br label %141

128:                                              ; preds = %103
  %129 = load ptr, ptr %12, align 8, !tbaa !5
  %130 = load i64, ptr %14, align 8, !tbaa !10
  %131 = getelementptr inbounds nuw i8, ptr %129, i64 %130
  %132 = getelementptr inbounds i8, ptr %131, i64 -1
  %133 = load ptr, ptr %12, align 8, !tbaa !5
  %134 = getelementptr inbounds nuw i8, ptr %133, i64 10
  %135 = load i64, ptr %13, align 8, !tbaa !10
  %136 = sub i64 %135, 10
  call void @llvm.memmove.p0.p0.i64(ptr align 1 %132, ptr align 1 %134, i64 %136, i1 false)
  %137 = load ptr, ptr %12, align 8, !tbaa !5
  %138 = load ptr, ptr %11, align 8, !tbaa !5
  %139 = load i64, ptr %14, align 8, !tbaa !10
  %140 = sub i64 %139, 1
  call void @llvm.memcpy.p0.p0.i64(ptr align 1 %137, ptr align 1 %138, i64 %140, i1 false)
  br label %141

141:                                              ; preds = %128, %119
  %142 = load i64, ptr %15, align 8, !tbaa !10
  %143 = trunc i64 %142 to i32
  %144 = load ptr, ptr %12, align 8, !tbaa !5
  store i32 %143, ptr %144, align 4, !tbaa !12
  %145 = load i64, ptr %16, align 8, !tbaa !10
  %146 = trunc i64 %145 to i16
  %147 = load ptr, ptr %12, align 8, !tbaa !5
  %148 = getelementptr inbounds nuw i8, ptr %147, i64 8
  store i16 %146, ptr %148, align 2, !tbaa !19
  %149 = load i64, ptr %6, align 8, !tbaa !10
  %150 = sub i64 %149, 1
  %151 = load i64, ptr %18, align 8, !tbaa !10
  %152 = sub i64 %151, 10
  %153 = add i64 %150, %152
  %154 = trunc i64 %153 to i32
  %155 = load ptr, ptr %12, align 8, !tbaa !5
  %156 = getelementptr inbounds nuw i8, ptr %155, i64 4
  store i32 %154, ptr %156, align 4, !tbaa !12
  %157 = load ptr, ptr %12, align 8, !tbaa !5
  %158 = load ptr, ptr %12, align 8, !tbaa !5
  %159 = load i64, ptr %17, align 8, !tbaa !10
  %160 = getelementptr inbounds nuw i8, ptr %158, i64 %159
  %161 = call ptr @__ziplistCascadeUpdate(ptr noundef %157, ptr noundef %160)
  store ptr %161, ptr %12, align 8, !tbaa !5
  %162 = load i32, ptr %10, align 4, !tbaa !12
  %163 = icmp ne i32 %162, 0
  br i1 %163, label %164, label %170

164:                                              ; preds = %141
  %165 = load ptr, ptr %5, align 8, !tbaa !35
  %166 = load ptr, ptr %165, align 8, !tbaa !5
  call void @zfree(ptr noundef %166)
  %167 = load ptr, ptr %5, align 8, !tbaa !35
  store ptr null, ptr %167, align 8, !tbaa !5
  %168 = load ptr, ptr %12, align 8, !tbaa !5
  %169 = load ptr, ptr %4, align 8, !tbaa !35
  store ptr %168, ptr %169, align 8, !tbaa !5
  br label %176

170:                                              ; preds = %141
  %171 = load ptr, ptr %4, align 8, !tbaa !35
  %172 = load ptr, ptr %171, align 8, !tbaa !5
  call void @zfree(ptr noundef %172)
  %173 = load ptr, ptr %4, align 8, !tbaa !35
  store ptr null, ptr %173, align 8, !tbaa !5
  %174 = load ptr, ptr %12, align 8, !tbaa !5
  %175 = load ptr, ptr %5, align 8, !tbaa !35
  store ptr %174, ptr %175, align 8, !tbaa !5
  br label %176

176:                                              ; preds = %170, %164
  %177 = load ptr, ptr %12, align 8, !tbaa !5
  store ptr %177, ptr %3, align 8
  call void @llvm.lifetime.end.p0(i64 8, ptr %18) #11
  call void @llvm.lifetime.end.p0(i64 8, ptr %17) #11
  call void @llvm.lifetime.end.p0(i64 8, ptr %16) #11
  call void @llvm.lifetime.end.p0(i64 8, ptr %15) #11
  call void @llvm.lifetime.end.p0(i64 8, ptr %14) #11
  call void @llvm.lifetime.end.p0(i64 8, ptr %13) #11
  call void @llvm.lifetime.end.p0(i64 8, ptr %12) #11
  call void @llvm.lifetime.end.p0(i64 8, ptr %11) #11
  call void @llvm.lifetime.end.p0(i64 4, ptr %10) #11
  call void @llvm.lifetime.end.p0(i64 8, ptr %9) #11
  call void @llvm.lifetime.end.p0(i64 8, ptr %8) #11
  call void @llvm.lifetime.end.p0(i64 8, ptr %7) #11
  call void @llvm.lifetime.end.p0(i64 8, ptr %6) #11
  br label %178

178:                                              ; preds = %176, %39, %32
  %179 = load ptr, ptr %3, align 8
  ret ptr %179
}