; Function Attrs: nounwind uwtable
define dso_local noundef ptr @ziplistMerge(ptr noundef captures(address_is_null) %0, ptr noundef captures(address_is_null) %1) local_unnamed_addr #5 {
  %3 = icmp eq ptr %0, null
  br i1 %3, label %53, label %4

4:                                                ; preds = %2
  %5 = load ptr, ptr %0, align 8, !tbaa !32
  %6 = icmp eq ptr %5, null
  %7 = icmp eq ptr %1, null
  %or.cond = or i1 %7, %6
  br i1 %or.cond, label %53, label %8

8:                                                ; preds = %4
  %9 = load ptr, ptr %1, align 8, !tbaa !32
  %10 = icmp eq ptr %9, null
  %11 = icmp eq ptr %5, %9
  %or.cond78 = or i1 %10, %11
  br i1 %or.cond78, label %53, label %12

12:                                               ; preds = %8
  %13 = load i32, ptr %5, align 4, !tbaa !5
  %14 = zext i32 %13 to i64
  %15 = getelementptr inbounds nuw i8, ptr %5, i64 8
  %16 = load i16, ptr %15, align 2, !tbaa !12
  %17 = zext i16 %16 to i64
  %18 = load i32, ptr %9, align 4, !tbaa !5
  %19 = zext i32 %18 to i64
  %20 = getelementptr inbounds nuw i8, ptr %9, i64 8
  %21 = load i16, ptr %20, align 2, !tbaa !12
  %22 = zext i16 %21 to i64
  %23 = add nsw i64 %14, -11
  %24 = add nsw i64 %23, %19
  %25 = add nuw nsw i64 %22, %17
  %26 = tail call i64 @llvm.umin.i64(i64 %25, i64 65535)
  %27 = icmp ult i64 %24, 4294967295
  br i1 %27, label %29, label %28, !prof !14

28:                                               ; preds = %12
  tail call void @_serverAssert(ptr noundef nonnull @.str.10, ptr noundef nonnull @.str.1, i32 noundef 1085) #17
  tail call void @abort() #18
  unreachable

29:                                               ; preds = %12
  %.not = icmp ult i16 %16, %21
  %. = select i1 %.not, ptr %9, ptr %5
  %30 = getelementptr inbounds nuw i8, ptr %5, i64 4
  %31 = load i32, ptr %30, align 4, !tbaa !5
  %32 = zext i32 %31 to i64
  %33 = getelementptr inbounds nuw i8, ptr %9, i64 4
  %34 = load i32, ptr %33, align 4, !tbaa !5
  %35 = tail call ptr @zrealloc(ptr noundef nonnull %., i64 noundef %24) #20
  %36 = getelementptr inbounds nuw i8, ptr %35, i64 %14
  %37 = getelementptr inbounds i8, ptr %36, i64 -1
  %38 = add nsw i64 %19, -10
  br i1 %.not, label %41, label %39

39:                                               ; preds = %29
  %40 = getelementptr inbounds nuw i8, ptr %9, i64 10
  tail call void @llvm.memcpy.p0.p0.i64(ptr nonnull align 1 %37, ptr nonnull align 1 %40, i64 %38, i1 false)
  br label %.sink.split

41:                                               ; preds = %29
  %42 = getelementptr inbounds nuw i8, ptr %35, i64 10
  tail call void @llvm.memmove.p0.p0.i64(ptr nonnull align 1 %37, ptr nonnull align 1 %42, i64 %38, i1 false)
  %43 = add nsw i64 %14, -1
  tail call void @llvm.memcpy.p0.p0.i64(ptr align 1 %35, ptr nonnull align 1 %5, i64 %43, i1 false)
  br label %.sink.split

.sink.split:                                      ; preds = %41, %39
  %.83 = phi ptr [ %1, %41 ], [ %0, %39 ]
  %.82 = phi ptr [ %0, %41 ], [ %1, %39 ]
  %44 = trunc nuw i64 %24 to i32
  store i32 %44, ptr %35, align 4, !tbaa !5
  %45 = trunc nuw i64 %26 to i16
  %46 = getelementptr inbounds nuw i8, ptr %35, i64 8
  store i16 %45, ptr %46, align 2, !tbaa !12
  %47 = add i32 %13, -11
  %48 = add i32 %47, %34
  %49 = getelementptr inbounds nuw i8, ptr %35, i64 4
  store i32 %48, ptr %49, align 4, !tbaa !5
  %50 = getelementptr inbounds nuw i8, ptr %35, i64 %32
  %51 = tail call ptr @__ziplistCascadeUpdate(ptr noundef nonnull %35, ptr noundef nonnull %50)
  %52 = load ptr, ptr %.82, align 8, !tbaa !32
  tail call void @zfree(ptr noundef %52) #17
  store ptr null, ptr %.82, align 8, !tbaa !32
  store ptr %51, ptr %.83, align 8, !tbaa !32
  br label %53

53:                                               ; preds = %.sink.split, %2, %4, %8
  %.0 = phi ptr [ null, %8 ], [ null, %4 ], [ null, %2 ], [ %51, %.sink.split ]
  ret ptr %.0
}